[Created by: generate-expired-root.py]

Certificate chain with 1 intermediate, where the root certificate is expired
(violates validity.notAfter). Verification is expected to fail.

Certificate:
    Data:
        Version: 3 (0x2)
        Serial Number: 1 (0x1)
    Signature Algorithm: sha256WithRSAEncryption
        Issuer: CN=Intermediate
        Validity
            Not Before: Jan  1 12:00:00 2015 GMT
            Not After : Jan  1 12:00:00 2016 GMT
        Subject: CN=Target
        Subject Public Key Info:
            Public Key Algorithm: rsaEncryption
                Public-Key: (2048 bit)
                Modulus:
                    00:de:6b:17:fa:9d:bf:8d:97:11:c1:2b:af:53:67:
                    89:b2:bb:1b:7c:25:a6:ba:81:f9:43:3f:15:51:06:
                    24:11:3c:3c:d1:28:16:86:53:15:fb:e6:99:67:08:
                    d7:2a:74:2d:ba:f2:72:55:ec:8e:7b:13:30:f8:31:
                    dc:16:a2:7f:7a:83:9c:26:ee:cb:5a:49:68:75:7e:
                    97:a9:04:e5:2a:dc:e7:5d:9d:60:22:7f:b5:b3:d5:
                    13:7c:64:3b:75:a5:b8:92:8f:67:7e:de:7e:42:13:
                    7a:d2:e1:da:c5:f5:a7:bb:db:57:db:e5:09:d8:37:
                    6f:80:c0:06:52:c5:ea:33:1b:35:ba:21:de:6c:a0:
                    e2:c8:19:b4:cc:3e:3c:0e:af:f1:a8:c6:01:f7:d8:
                    7a:dc:83:4a:e8:9f:dc:30:f7:c8:a4:19:c4:89:45:
                    69:60:3b:ca:a0:f8:86:09:56:1e:0f:55:c4:32:8f:
                    95:fd:02:ee:e6:76:d5:bc:4a:6c:8f:b4:47:3f:04:
                    e4:0c:45:16:a3:04:3b:73:f2:5e:2e:6b:62:9e:25:
                    e9:46:2c:ee:b9:3a:6b:a9:84:63:d2:aa:a6:73:66:
                    61:77:90:e2:7b:1e:d0:c3:3c:7d:23:40:cb:9d:a4:
                    53:ab:bb:9d:57:b8:dd:30:f4:89:cd:be:40:0f:8c:
                    fe:45
                Exponent: 65537 (0x10001)
        X509v3 extensions:
            X509v3 Subject Key Identifier: 
                E1:00:21:A7:60:75:C5:70:AE:67:AA:A2:C0:27:3E:1D:88:0B:8F:3A
            X509v3 Authority Key Identifier: 
                keyid:63:74:44:85:E8:82:EC:BA:73:D2:A8:F4:8D:AF:0B:B0:37:F6:14:DD

            Authority Information Access: 
                CA Issuers - URI:http://url-for-aia/Intermediate.cer

            X509v3 CRL Distribution Points: 

                Full Name:
                  URI:http://url-for-crl/Intermediate.crl

            X509v3 Key Usage: critical
                Digital Signature, Key Encipherment
            X509v3 Extended Key Usage: 
                TLS Web Server Authentication, TLS Web Client Authentication
    Signature Algorithm: sha256WithRSAEncryption
         a0:85:7a:3a:fd:63:12:8f:fa:ea:aa:a0:17:37:a9:ee:2d:a1:
         98:e4:4e:c0:5a:8f:42:1e:f7:09:c9:36:0e:8e:7c:0f:00:20:
         f8:73:5b:7c:e2:f0:ea:45:35:0e:70:b3:a7:65:d6:8e:ad:02:
         2b:04:79:c0:0b:e3:3e:57:da:ab:7a:e5:78:6e:91:fd:0c:bf:
         3a:22:14:16:c1:42:e1:8c:f9:92:1c:7d:74:b3:72:b6:18:42:
         1f:30:c1:f1:05:f2:7e:9e:71:f8:a7:e1:e4:6d:9b:a4:8a:29:
         f0:ae:73:c3:b9:7d:93:5f:4c:b4:7e:4e:fb:6d:3f:4d:85:46:
         ea:31:32:01:92:50:10:c7:81:82:d3:86:75:8b:47:c3:e7:e9:
         17:0c:42:d2:e4:70:66:eb:07:e7:6e:1a:12:b2:c9:8a:62:b0:
         0e:8e:27:f1:90:9e:82:10:96:92:c9:9f:31:e1:50:21:e8:39:
         c3:d8:26:2a:f9:36:21:02:e7:ac:a7:0c:81:a1:35:1c:7c:33:
         e8:84:26:9a:41:a7:07:d0:ff:d5:18:b9:b8:2c:46:47:3a:1b:
         22:c4:35:f7:ab:86:98:63:cf:8a:d1:94:be:5b:59:a3:4b:6a:
         01:1f:df:27:cb:09:d3:98:43:88:80:9c:ed:ca:73:60:41:e0:
         77:8d:e4:ab
-----BEGIN CERTIFICATE-----
MIIDjTCCAnWgAwIBAgIBATANBgkqhkiG9w0BAQsFADAXMRUwEwYDVQQDDAxJbnRl
cm1lZGlhdGUwHhcNMTUwMTAxMTIwMDAwWhcNMTYwMTAxMTIwMDAwWjARMQ8wDQYD
VQQDDAZUYXJnZXQwggEiMA0GCSqGSIb3DQEBAQUAA4IBDwAwggEKAoIBAQDeaxf6
nb+NlxHBK69TZ4myuxt8Jaa6gflDPxVRBiQRPDzRKBaGUxX75plnCNcqdC268nJV
7I57EzD4MdwWon96g5wm7staSWh1fpepBOUq3OddnWAif7Wz1RN8ZDt1pbiSj2d+
3n5CE3rS4drF9ae721fb5QnYN2+AwAZSxeozGzW6Id5soOLIGbTMPjwOr/GoxgH3
2Hrcg0ron9ww98ikGcSJRWlgO8qg+IYJVh4PVcQyj5X9Au7mdtW8SmyPtEc/BOQM
RRajBDtz8l4ua2KeJelGLO65OmuphGPSqqZzZmF3kOJ7HtDDPH0jQMudpFOru51X
uN0w9InNvkAPjP5FAgMBAAGjgekwgeYwHQYDVR0OBBYEFOEAIadgdcVwrmeqosAn
Ph2IC486MB8GA1UdIwQYMBaAFGN0RIXoguy6c9Ko9I2vC7A39hTdMD8GCCsGAQUF
BwEBBDMwMTAvBggrBgEFBQcwAoYjaHR0cDovL3VybC1mb3ItYWlhL0ludGVybWVk
aWF0ZS5jZXIwNAYDVR0fBC0wKzApoCegJYYjaHR0cDovL3VybC1mb3ItY3JsL0lu
dGVybWVkaWF0ZS5jcmwwDgYDVR0PAQH/BAQDAgWgMB0GA1UdJQQWMBQGCCsGAQUF
BwMBBggrBgEFBQcDAjANBgkqhkiG9w0BAQsFAAOCAQEAoIV6Ov1jEo/66qqgFzep
7i2hmOROwFqPQh73Cck2Do58DwAg+HNbfOLw6kU1DnCzp2XWjq0CKwR5wAvjPlfa
q3rleG6R/Qy/OiIUFsFC4Yz5khx9dLNythhCHzDB8QXyfp5x+Kfh5G2bpIop8K5z
w7l9k19MtH5O+20/TYVG6jEyAZJQEMeBgtOGdYtHw+fpFwxC0uRwZusH524aErLJ
imKwDo4n8ZCeghCWksmfMeFQIeg5w9gmKvk2IQLnrKcMgaE1HHwz6IQmmkGnB9D/
1Ri5uCxGRzobIsQ196uGmGPPitGUvltZo0tqAR/fJ8sJ05hDiICc7cpzYEHgd43k
qw==
-----END CERTIFICATE-----

Certificate:
    Data:
        Version: 3 (0x2)
        Serial Number: 2 (0x2)
    Signature Algorithm: sha256WithRSAEncryption
        Issuer: CN=Root
        Validity
            Not Before: Jan  1 12:00:00 2015 GMT
            Not After : Jan  1 12:00:00 2016 GMT
        Subject: CN=Intermediate
        Subject Public Key Info:
            Public Key Algorithm: rsaEncryption
                Public-Key: (2048 bit)
                Modulus:
                    00:d6:9b:b6:c4:fd:a9:f3:0d:77:4f:26:65:7d:54:
                    f5:19:ab:7a:49:c0:8a:90:ee:86:43:c4:1f:52:f8:
                    af:1c:47:f7:88:0d:19:df:2f:5d:b1:c2:3c:5d:1d:
                    9e:54:cd:e0:22:6a:6b:b4:8f:f9:38:0b:ef:b2:81:
                    80:ee:22:83:5b:3e:2e:b7:b0:cd:4f:2f:78:be:d4:
                    40:3f:c9:d9:4b:f6:39:6c:63:94:a4:c2:1b:97:01:
                    a2:a6:9b:5c:11:f8:40:c4:25:64:6a:9a:17:fb:43:
                    ab:d4:42:cd:d3:6e:23:68:90:3e:c0:54:0f:73:58:
                    13:c2:70:9f:c6:76:a4:c3:94:e8:b2:5f:16:e3:a9:
                    f7:87:56:06:85:d9:ca:2c:09:01:39:97:c0:f2:36:
                    e1:90:97:c1:78:9f:99:86:03:e6:00:6a:ea:2c:60:
                    b0:ae:08:04:e8:11:bd:7e:e5:4e:e6:b1:9b:d0:1c:
                    09:ff:ea:68:1b:c0:54:4a:c5:ad:d9:bd:25:e9:b3:
                    7a:66:7f:98:50:9e:a7:c4:1b:ed:fa:2a:cc:94:9e:
                    bd:4b:11:b4:03:7c:6e:8e:5e:db:46:b1:59:2f:b2:
                    18:fc:2f:83:ef:e3:d1:24:3a:c0:60:ae:dd:ab:a6:
                    93:07:27:cb:d9:7f:1b:75:f2:1a:82:35:e5:1b:e6:
                    27:01
                Exponent: 65537 (0x10001)
        X509v3 extensions:
            X509v3 Subject Key Identifier: 
                63:74:44:85:E8:82:EC:BA:73:D2:A8:F4:8D:AF:0B:B0:37:F6:14:DD
            X509v3 Authority Key Identifier: 
                keyid:01:34:E7:14:1F:DF:2E:D5:19:18:06:94:60:42:D1:A8:FC:16:E0:61

            Authority Information Access: 
                CA Issuers - URI:http://url-for-aia/Root.cer

            X509v3 CRL Distribution Points: 

                Full Name:
                  URI:http://url-for-crl/Root.crl

            X509v3 Key Usage: critical
                Certificate Sign, CRL Sign
            X509v3 Basic Constraints: critical
                CA:TRUE
    Signature Algorithm: sha256WithRSAEncryption
         33:28:d1:77:84:d7:9e:51:7e:ce:85:49:35:ee:e8:f3:fb:d6:
         4f:fa:6c:00:0b:90:a1:f1:37:4b:d0:3e:9d:82:2d:e0:96:d8:
         72:fb:61:96:d6:36:a2:1a:ca:62:44:c3:a3:14:c5:0b:e0:de:
         39:a9:c9:75:a4:9f:2c:54:0d:fa:61:5c:fa:6e:66:0f:71:0e:
         58:12:d4:1a:c6:c0:ca:33:f7:8f:0f:2a:8f:a1:2d:c1:a8:64:
         2e:52:23:ac:fe:9b:04:90:84:13:44:40:e8:4b:bf:53:30:72:
         ff:5c:7e:8c:62:87:c5:03:a8:84:8c:7c:4d:fb:d6:8c:8c:35:
         56:9b:0f:01:e3:81:9b:6c:36:e2:f1:88:06:16:75:2f:6e:cc:
         70:30:67:c9:6c:3c:28:49:72:0d:11:6b:1d:73:ae:d9:bf:e6:
         6c:63:c4:70:df:18:8c:fc:d0:03:01:c5:8a:22:4e:b1:c5:03:
         dc:36:9a:22:08:ab:46:88:d6:93:2c:6c:1b:05:b1:60:69:be:
         ad:97:d1:a8:e4:a1:70:5a:ab:84:87:72:75:13:50:95:58:b1:
         80:27:50:60:9b:b1:da:7e:18:b8:f0:bd:f3:54:89:04:32:ff:
         b1:f2:be:a8:09:14:b1:74:30:a8:95:8e:59:ed:8a:63:28:ce:
         55:68:d8:e2
-----BEGIN CERTIFICATE-----
MIIDbTCCAlWgAwIBAgIBAjANBgkqhkiG9w0BAQsFADAPMQ0wCwYDVQQDDARSb290
MB4XDTE1MDEwMTEyMDAwMFoXDTE2MDEwMTEyMDAwMFowFzEVMBMGA1UEAwwMSW50
ZXJtZWRpYXRlMIIBIjANBgkqhkiG9w0BAQEFAAOCAQ8AMIIBCgKCAQEA1pu2xP2p
8w13TyZlfVT1Gat6ScCKkO6GQ8QfUvivHEf3iA0Z3y9dscI8XR2eVM3gImprtI/5
OAvvsoGA7iKDWz4ut7DNTy94vtRAP8nZS/Y5bGOUpMIblwGipptcEfhAxCVkapoX
+0Or1ELN024jaJA+wFQPc1gTwnCfxnakw5Tosl8W46n3h1YGhdnKLAkBOZfA8jbh
kJfBeJ+ZhgPmAGrqLGCwrggE6BG9fuVO5rGb0BwJ/+poG8BUSsWt2b0l6bN6Zn+Y
UJ6nxBvt+irMlJ69SxG0A3xujl7bRrFZL7IY/C+D7+PRJDrAYK7dq6aTByfL2X8b
dfIagjXlG+YnAQIDAQABo4HLMIHIMB0GA1UdDgQWBBRjdESF6ILsunPSqPSNrwuw
N/YU3TAfBgNVHSMEGDAWgBQBNOcUH98u1RkYBpRgQtGo/BbgYTA3BggrBgEFBQcB
AQQrMCkwJwYIKwYBBQUHMAKGG2h0dHA6Ly91cmwtZm9yLWFpYS9Sb290LmNlcjAs
BgNVHR8EJTAjMCGgH6AdhhtodHRwOi8vdXJsLWZvci1jcmwvUm9vdC5jcmwwDgYD
VR0PAQH/BAQDAgEGMA8GA1UdEwEB/wQFMAMBAf8wDQYJKoZIhvcNAQELBQADggEB
ADMo0XeE155Rfs6FSTXu6PP71k/6bAALkKHxN0vQPp2CLeCW2HL7YZbWNqIaymJE
w6MUxQvg3jmpyXWknyxUDfphXPpuZg9xDlgS1BrGwMoz948PKo+hLcGoZC5SI6z+
mwSQhBNEQOhLv1Mwcv9cfoxih8UDqISMfE371oyMNVabDwHjgZtsNuLxiAYWdS9u
zHAwZ8lsPChJcg0Rax1zrtm/5mxjxHDfGIz80AMBxYoiTrHFA9w2miIIq0aI1pMs
bBsFsWBpvq2X0ajkoXBaq4SHcnUTUJVYsYAnUGCbsdp+GLjwvfNUiQQy/7HyvqgJ
FLF0MKiVjlntimMozlVo2OI=
-----END CERTIFICATE-----

Certificate:
    Data:
        Version: 3 (0x2)
        Serial Number: 1 (0x1)
    Signature Algorithm: sha256WithRSAEncryption
        Issuer: CN=Root
        Validity
            Not Before: Jan  1 12:00:00 2015 GMT
            Not After : Mar  1 12:00:00 2015 GMT
        Subject: CN=Root
        Subject Public Key Info:
            Public Key Algorithm: rsaEncryption
                Public-Key: (2048 bit)
                Modulus:
                    00:cc:3f:3d:39:6a:1a:de:64:b7:11:19:82:b6:ed:
                    b9:47:d8:67:22:83:07:f7:a1:de:70:05:e1:83:f2:
                    06:8d:ea:b0:19:95:27:f4:19:c8:b9:53:91:35:0a:
                    50:2c:26:7c:77:9f:fb:d5:36:19:f3:91:67:8d:2a:
                    ea:0c:81:ab:f6:dd:8a:32:e9:e9:71:71:57:ea:3c:
                    5f:e8:b8:9b:60:6a:7d:2a:8c:54:66:ad:5a:b5:e0:
                    c0:0e:a1:0b:2f:00:b3:f9:e3:82:16:4f:8c:a9:4c:
                    89:72:88:ba:2c:60:04:29:09:7c:bc:9e:d4:81:62:
                    22:ed:3d:2f:00:5a:71:7d:db:87:54:83:8d:43:49:
                    db:6d:53:59:36:81:d4:ef:8f:e6:fa:d8:9b:a2:f0:
                    e6:1c:32:26:8c:f6:d5:57:4e:bb:dc:6e:f4:fd:24:
                    b4:3a:75:91:3b:9d:72:78:1f:06:7d:05:88:72:eb:
                    d7:4a:d1:22:97:19:90:90:d8:e0:d5:03:4c:be:8e:
                    04:9b:b0:4d:8d:1b:dd:96:91:7e:90:16:7b:5d:32:
                    3d:f5:c3:a9:1c:62:07:17:55:56:4b:08:75:5b:fc:
                    11:57:39:52:81:08:2e:31:b3:ee:7c:38:e0:62:dd:
                    cc:47:b1:fb:c7:45:47:aa:b7:c6:c1:20:ba:b0:13:
                    63:b9
                Exponent: 65537 (0x10001)
        X509v3 extensions:
            X509v3 Subject Key Identifier: 
                01:34:E7:14:1F:DF:2E:D5:19:18:06:94:60:42:D1:A8:FC:16:E0:61
            X509v3 Authority Key Identifier: 
                keyid:01:34:E7:14:1F:DF:2E:D5:19:18:06:94:60:42:D1:A8:FC:16:E0:61

            Authority Information Access: 
                CA Issuers - URI:http://url-for-aia/Root.cer

            X509v3 CRL Distribution Points: 

                Full Name:
                  URI:http://url-for-crl/Root.crl

            X509v3 Key Usage: critical
                Certificate Sign, CRL Sign
            X509v3 Basic Constraints: critical
                CA:TRUE
    Signature Algorithm: sha256WithRSAEncryption
         79:96:30:f1:a6:30:2b:c8:b8:51:8f:17:03:6c:ca:26:30:f8:
         2e:40:ff:ea:d3:3a:b6:80:db:d6:cc:ec:83:75:84:65:47:8b:
         fc:0e:b4:13:b2:68:41:2e:ab:83:0d:4a:d0:d1:16:ab:f3:5c:
         80:a0:60:f0:08:c9:b3:56:26:c3:08:d1:37:0c:66:fa:11:ce:
         93:74:d1:ed:a7:5c:34:d4:31:d4:ba:af:81:d4:ca:85:93:27:
         cc:c1:8f:97:06:51:61:94:1f:e9:3a:90:e7:39:c8:0e:f0:08:
         97:bd:ff:b4:2d:b6:20:9f:78:7b:7c:c0:25:ea:3b:2e:9d:66:
         84:f9:2a:f3:7e:54:20:1c:d9:fa:5f:0c:4a:c1:ea:36:8c:ae:
         43:c5:26:b6:99:f4:bd:2d:da:ff:96:f3:a9:1d:03:4a:50:44:
         2a:0c:bb:42:fb:b2:e4:44:f5:c2:06:1a:10:e7:cb:32:d6:40:
         b9:eb:85:d1:79:0e:f5:6a:1b:2b:fe:3e:01:c6:2d:a5:e4:bd:
         b0:46:76:a3:50:07:42:9d:18:76:3f:c2:29:1b:03:94:c2:d1:
         14:4d:47:cd:44:63:e0:d4:30:b9:e5:05:03:88:ca:a5:a8:0e:
         01:15:02:d8:cc:8c:91:87:56:d6:20:00:58:73:db:2e:10:86:
         41:63:5e:35
-----BEGIN TRUSTED_CERTIFICATE-----
MIIDZTCCAk2gAwIBAgIBATANBgkqhkiG9w0BAQsFADAPMQ0wCwYDVQQDDARSb290
MB4XDTE1MDEwMTEyMDAwMFoXDTE1MDMwMTEyMDAwMFowDzENMAsGA1UEAwwEUm9v
dDCCASIwDQYJKoZIhvcNAQEBBQADggEPADCCAQoCggEBAMw/PTlqGt5ktxEZgrbt
uUfYZyKDB/eh3nAF4YPyBo3qsBmVJ/QZyLlTkTUKUCwmfHef+9U2GfORZ40q6gyB
q/bdijLp6XFxV+o8X+i4m2BqfSqMVGatWrXgwA6hCy8As/njghZPjKlMiXKIuixg
BCkJfLye1IFiIu09LwBacX3bh1SDjUNJ221TWTaB1O+P5vrYm6Lw5hwyJoz21VdO
u9xu9P0ktDp1kTudcngfBn0FiHLr10rRIpcZkJDY4NUDTL6OBJuwTY0b3ZaRfpAW
e10yPfXDqRxiBxdVVksIdVv8EVc5UoEILjGz7nw44GLdzEex+8dFR6q3xsEgurAT
Y7kCAwEAAaOByzCByDAdBgNVHQ4EFgQUATTnFB/fLtUZGAaUYELRqPwW4GEwHwYD
VR0jBBgwFoAUATTnFB/fLtUZGAaUYELRqPwW4GEwNwYIKwYBBQUHAQEEKzApMCcG
CCsGAQUFBzAChhtodHRwOi8vdXJsLWZvci1haWEvUm9vdC5jZXIwLAYDVR0fBCUw
IzAhoB+gHYYbaHR0cDovL3VybC1mb3ItY3JsL1Jvb3QuY3JsMA4GA1UdDwEB/wQE
AwIBBjAPBgNVHRMBAf8EBTADAQH/MA0GCSqGSIb3DQEBCwUAA4IBAQB5ljDxpjAr
yLhRjxcDbMomMPguQP/q0zq2gNvWzOyDdYRlR4v8DrQTsmhBLquDDUrQ0Rar81yA
oGDwCMmzVibDCNE3DGb6Ec6TdNHtp1w01DHUuq+B1MqFkyfMwY+XBlFhlB/pOpDn
OcgO8AiXvf+0LbYgn3h7fMAl6jsunWaE+SrzflQgHNn6XwxKweo2jK5DxSa2mfS9
Ldr/lvOpHQNKUEQqDLtC+7LkRPXCBhoQ58sy1kC564XReQ71ahsr/j4Bxi2l5L2w
RnajUAdCnRh2P8IpGwOUwtEUTUfNRGPg1DC55QUDiMqlqA4BFQLYzIyRh1bWIABY
c9suEIZBY141
-----END TRUSTED_CERTIFICATE-----

-----BEGIN TIME-----
MTUwMzAyMTIwMDAwWg==
-----END TIME-----

-----BEGIN VERIFY_RESULT-----
RkFJTA==
-----END VERIFY_RESULT-----
