[Created by: generate-violates-pathlen-1-root.py]

Certificate chain with 2 intermediates and one end entity certificate. The
root certificate has a pathlen:1 restriction so this is an invalid chain.

Certificate:
    Data:
        Version: 3 (0x2)
        Serial Number: 1 (0x1)
    Signature Algorithm: sha256WithRSAEncryption
        Issuer: CN=Intermediate2
        Validity
            Not Before: Jan  1 12:00:00 2015 GMT
            Not After : Jan  1 12:00:00 2016 GMT
        Subject: CN=Target
        Subject Public Key Info:
            Public Key Algorithm: rsaEncryption
                Public-Key: (2048 bit)
                Modulus:
                    00:cb:62:aa:87:80:66:83:c5:88:0f:18:6f:ba:e4:
                    3d:6e:3a:0e:02:40:9a:90:1c:2c:ef:63:5c:28:3a:
                    27:79:e7:53:c0:d8:0e:e9:95:ec:ee:19:45:6a:39:
                    1f:09:80:db:eb:0c:fc:ec:ff:e1:3d:42:8a:ab:ba:
                    6e:43:bf:bc:50:6b:15:da:0d:af:84:f1:7e:8d:b1:
                    c6:b6:ee:50:2a:73:3f:38:de:46:49:c1:eb:52:4a:
                    03:54:0b:67:d7:3b:1d:3d:ae:b5:0d:e1:2b:b5:a1:
                    9d:ea:56:aa:13:8b:80:2d:fb:ea:7f:83:15:d5:df:
                    09:a7:d5:ab:a8:5f:50:02:e1:82:7d:73:c3:6a:c6:
                    d9:bc:47:21:cd:d7:00:a2:06:7c:a7:2f:3e:e6:dd:
                    35:b0:fe:35:8d:7f:1e:68:ff:15:ee:d0:3f:69:05:
                    b5:2f:bb:27:bc:3a:9d:29:31:3d:af:29:a6:d6:a7:
                    45:0b:b9:f0:4f:a6:b3:13:f7:97:f5:6a:0f:1e:d1:
                    d8:9c:05:78:2e:b5:b9:de:ab:f4:26:90:93:49:f3:
                    b1:18:fe:3e:03:74:39:92:dd:7e:17:6d:31:c8:e7:
                    3f:a0:d7:13:dc:fe:76:ec:1a:c1:7f:4e:ad:0f:cc:
                    b3:d4:27:9b:2f:a5:e9:d9:81:ad:f6:ab:da:7f:d4:
                    71:69
                Exponent: 65537 (0x10001)
        X509v3 extensions:
            X509v3 Subject Key Identifier: 
                CA:5D:98:89:E9:73:51:6B:E4:E7:3E:9B:EF:A8:A0:0A:BC:48:07:92
            X509v3 Authority Key Identifier: 
                keyid:FD:E5:DE:B3:E1:33:73:97:CA:6B:94:1B:A6:4C:98:A0:8A:75:8F:F7

            Authority Information Access: 
                CA Issuers - URI:http://url-for-aia/Intermediate2.cer

            X509v3 CRL Distribution Points: 

                Full Name:
                  URI:http://url-for-crl/Intermediate2.crl

            X509v3 Key Usage: critical
                Digital Signature, Key Encipherment
            X509v3 Extended Key Usage: 
                TLS Web Server Authentication, TLS Web Client Authentication
    Signature Algorithm: sha256WithRSAEncryption
         6c:a3:b3:78:4e:dc:a2:d9:f4:d4:37:13:e2:1d:63:41:8c:db:
         37:8a:b5:9c:6f:03:20:b8:56:3f:45:c9:53:e2:d7:07:12:e3:
         4f:70:21:11:af:68:91:67:2c:12:b0:c3:8a:c6:52:24:55:ab:
         4c:37:f3:cc:9c:4f:51:d6:0e:a4:be:c0:a6:4e:7a:8b:a3:db:
         ae:3e:d8:36:71:19:f4:34:1e:d8:52:4f:75:fb:47:0e:df:fe:
         67:93:04:5b:88:84:7c:a4:21:aa:2c:3e:84:94:fa:96:5a:93:
         90:32:4f:5a:64:aa:e5:be:b1:38:24:20:a3:8e:f0:5c:96:d0:
         da:b3:12:82:00:fb:88:24:51:c5:65:6c:90:64:7f:80:38:32:
         74:bf:6f:a5:5e:88:96:ff:6f:5d:22:44:bc:85:27:b5:06:8e:
         db:7b:ab:b1:e0:96:f2:1c:f7:21:36:97:c7:0f:7d:99:b9:ca:
         22:74:5b:b2:70:c7:8a:4e:ae:b8:03:14:f0:ea:ad:4a:4b:97:
         d4:b1:33:91:c6:1b:4d:2a:85:03:c9:f2:60:22:47:d8:74:bd:
         97:83:ec:d4:cd:20:48:f6:b2:5e:5a:a8:ed:99:cf:58:d4:02:
         2a:23:3e:9b:b3:21:c1:82:b6:4e:31:01:73:e0:a5:06:e0:b5:
         4d:18:35:9e
-----BEGIN CERTIFICATE-----
MIIDkDCCAnigAwIBAgIBATANBgkqhkiG9w0BAQsFADAYMRYwFAYDVQQDDA1JbnRl
cm1lZGlhdGUyMB4XDTE1MDEwMTEyMDAwMFoXDTE2MDEwMTEyMDAwMFowETEPMA0G
A1UEAwwGVGFyZ2V0MIIBIjANBgkqhkiG9w0BAQEFAAOCAQ8AMIIBCgKCAQEAy2Kq
h4Bmg8WIDxhvuuQ9bjoOAkCakBws72NcKDoneedTwNgO6ZXs7hlFajkfCYDb6wz8
7P/hPUKKq7puQ7+8UGsV2g2vhPF+jbHGtu5QKnM/ON5GScHrUkoDVAtn1zsdPa61
DeErtaGd6laqE4uALfvqf4MV1d8Jp9WrqF9QAuGCfXPDasbZvEchzdcAogZ8py8+
5t01sP41jX8eaP8V7tA/aQW1L7snvDqdKTE9rymm1qdFC7nwT6azE/eX9WoPHtHY
nAV4LrW53qv0JpCTSfOxGP4+A3Q5kt1+F20xyOc/oNcT3P527BrBf06tD8yz1Ceb
L6Xp2YGt9qvaf9RxaQIDAQABo4HrMIHoMB0GA1UdDgQWBBTKXZiJ6XNRa+TnPpvv
qKAKvEgHkjAfBgNVHSMEGDAWgBT95d6z4TNzl8prlBumTJiginWP9zBABggrBgEF
BQcBAQQ0MDIwMAYIKwYBBQUHMAKGJGh0dHA6Ly91cmwtZm9yLWFpYS9JbnRlcm1l
ZGlhdGUyLmNlcjA1BgNVHR8ELjAsMCqgKKAmhiRodHRwOi8vdXJsLWZvci1jcmwv
SW50ZXJtZWRpYXRlMi5jcmwwDgYDVR0PAQH/BAQDAgWgMB0GA1UdJQQWMBQGCCsG
AQUFBwMBBggrBgEFBQcDAjANBgkqhkiG9w0BAQsFAAOCAQEAbKOzeE7cotn01DcT
4h1jQYzbN4q1nG8DILhWP0XJU+LXBxLjT3AhEa9okWcsErDDisZSJFWrTDfzzJxP
UdYOpL7Apk56i6Pbrj7YNnEZ9DQe2FJPdftHDt/+Z5MEW4iEfKQhqiw+hJT6llqT
kDJPWmSq5b6xOCQgo47wXJbQ2rMSggD7iCRRxWVskGR/gDgydL9vpV6Ilv9vXSJE
vIUntQaO23urseCW8hz3ITaXxw99mbnKInRbsnDHik6uuAMU8OqtSkuX1LEzkcYb
TSqFA8nyYCJH2HS9l4Ps1M0gSPayXlqo7ZnPWNQCKiM+m7MhwYK2TjEBc+ClBuC1
TRg1ng==
-----END CERTIFICATE-----

Certificate:
    Data:
        Version: 3 (0x2)
        Serial Number: 1 (0x1)
    Signature Algorithm: sha256WithRSAEncryption
        Issuer: CN=Intermediate1
        Validity
            Not Before: Jan  1 12:00:00 2015 GMT
            Not After : Jan  1 12:00:00 2016 GMT
        Subject: CN=Intermediate2
        Subject Public Key Info:
            Public Key Algorithm: rsaEncryption
                Public-Key: (2048 bit)
                Modulus:
                    00:cf:d2:9b:08:f9:4a:42:eb:7d:64:c4:af:15:8e:
                    1a:df:56:db:70:cd:5f:55:81:80:8b:cc:6e:2e:8a:
                    ed:cc:3e:cf:73:08:a8:6a:f6:d5:ab:71:ac:8e:dc:
                    3f:ab:85:9a:c6:2e:d5:83:98:24:71:1d:81:c5:28:
                    05:4a:ed:25:b7:d1:a0:1a:1c:d4:36:65:aa:33:5c:
                    a1:71:de:de:4e:ff:78:ef:54:1e:2e:6f:55:d2:58:
                    fc:c4:ef:b7:1d:88:5a:b7:01:25:43:84:9a:f8:20:
                    af:70:11:76:ec:c9:57:8b:1c:19:eb:fa:25:a4:f6:
                    96:cf:b9:4e:6d:ec:a5:f6:92:01:09:ee:ec:b9:84:
                    51:58:1c:a8:67:6d:46:9b:87:09:5d:3e:35:d3:d7:
                    cd:2f:67:96:07:c7:4c:93:df:f9:7b:48:84:3b:4f:
                    6b:0d:57:15:69:8b:eb:9c:00:df:6d:59:26:7b:34:
                    4c:da:6b:62:5b:16:5b:b5:df:2e:b0:97:90:54:98:
                    84:83:07:f0:78:c0:6c:21:8f:5e:96:d1:8c:e7:0b:
                    ad:c9:be:38:c4:a9:d5:dd:96:6e:fa:3d:e9:de:04:
                    e0:eb:7a:8f:e7:54:9c:e8:bd:cd:df:42:91:19:2c:
                    73:b0:ef:f4:f6:49:fc:ae:9a:88:50:ac:72:a1:84:
                    03:75
                Exponent: 65537 (0x10001)
        X509v3 extensions:
            X509v3 Subject Key Identifier: 
                FD:E5:DE:B3:E1:33:73:97:CA:6B:94:1B:A6:4C:98:A0:8A:75:8F:F7
            X509v3 Authority Key Identifier: 
                keyid:6A:CF:A7:31:B7:5A:1E:F0:D3:D0:55:74:2A:18:ED:26:B6:46:99:A2

            Authority Information Access: 
                CA Issuers - URI:http://url-for-aia/Intermediate1.cer

            X509v3 CRL Distribution Points: 

                Full Name:
                  URI:http://url-for-crl/Intermediate1.crl

            X509v3 Key Usage: critical
                Certificate Sign, CRL Sign
            X509v3 Basic Constraints: critical
                CA:TRUE
    Signature Algorithm: sha256WithRSAEncryption
         cb:42:61:28:aa:f4:9b:98:aa:7e:16:fc:c4:8e:58:6c:c4:3d:
         2e:47:9e:bf:ea:f6:61:db:95:30:77:23:c2:ea:21:67:d0:9c:
         a5:4d:48:7b:ba:19:f9:9d:e2:f8:28:b0:f9:90:aa:f5:1e:53:
         02:e1:0c:b2:83:89:fe:63:ef:4e:3b:21:51:3d:cd:19:82:43:
         c9:a1:fe:2b:ff:e7:ff:a5:19:ad:17:42:22:b8:15:01:80:17:
         1b:83:68:58:33:22:71:e5:03:20:f3:f2:11:b8:9b:93:be:11:
         d0:6c:96:53:97:9e:d8:0e:f8:20:91:7d:61:a0:82:98:a2:67:
         06:3a:61:ee:d7:46:f1:02:77:75:28:50:cf:62:15:17:c9:9d:
         5b:ea:e4:1f:00:59:52:ad:66:07:46:34:df:13:3b:32:63:6a:
         b5:a4:36:71:bd:e5:fa:85:40:98:3e:0b:1d:65:e6:b6:a0:c5:
         b4:1b:3f:06:d4:8e:cf:4b:97:5b:7c:f2:f4:57:ba:89:a9:a9:
         d4:b2:b3:7f:70:71:85:ca:8e:dd:3f:3b:5e:64:a7:a2:84:91:
         45:9e:14:4a:7e:02:1c:b0:45:4f:ee:90:8e:1a:d6:27:09:19:
         5d:f1:6c:8a:4b:2d:85:05:0a:83:af:1c:1a:0c:0e:b7:33:d2:
         b7:c6:0a:f3
-----BEGIN CERTIFICATE-----
MIIDiTCCAnGgAwIBAgIBATANBgkqhkiG9w0BAQsFADAYMRYwFAYDVQQDDA1JbnRl
cm1lZGlhdGUxMB4XDTE1MDEwMTEyMDAwMFoXDTE2MDEwMTEyMDAwMFowGDEWMBQG
A1UEAwwNSW50ZXJtZWRpYXRlMjCCASIwDQYJKoZIhvcNAQEBBQADggEPADCCAQoC
ggEBAM/Smwj5SkLrfWTErxWOGt9W23DNX1WBgIvMbi6K7cw+z3MIqGr21atxrI7c
P6uFmsYu1YOYJHEdgcUoBUrtJbfRoBoc1DZlqjNcoXHe3k7/eO9UHi5vVdJY/MTv
tx2IWrcBJUOEmvggr3ARduzJV4scGev6JaT2ls+5Tm3spfaSAQnu7LmEUVgcqGdt
RpuHCV0+NdPXzS9nlgfHTJPf+XtIhDtPaw1XFWmL65wA321ZJns0TNprYlsWW7Xf
LrCXkFSYhIMH8HjAbCGPXpbRjOcLrcm+OMSp1d2Wbvo96d4E4Ot6j+dUnOi9zd9C
kRksc7Dv9PZJ/K6aiFCscqGEA3UCAwEAAaOB3TCB2jAdBgNVHQ4EFgQU/eXes+Ez
c5fKa5QbpkyYoIp1j/cwHwYDVR0jBBgwFoAUas+nMbdaHvDT0FV0KhjtJrZGmaIw
QAYIKwYBBQUHAQEENDAyMDAGCCsGAQUFBzAChiRodHRwOi8vdXJsLWZvci1haWEv
SW50ZXJtZWRpYXRlMS5jZXIwNQYDVR0fBC4wLDAqoCigJoYkaHR0cDovL3VybC1m
b3ItY3JsL0ludGVybWVkaWF0ZTEuY3JsMA4GA1UdDwEB/wQEAwIBBjAPBgNVHRMB
Af8EBTADAQH/MA0GCSqGSIb3DQEBCwUAA4IBAQDLQmEoqvSbmKp+FvzEjlhsxD0u
R56/6vZh25UwdyPC6iFn0JylTUh7uhn5neL4KLD5kKr1HlMC4Qyyg4n+Y+9OOyFR
Pc0ZgkPJof4r/+f/pRmtF0IiuBUBgBcbg2hYMyJx5QMg8/IRuJuTvhHQbJZTl57Y
DvggkX1hoIKYomcGOmHu10bxAnd1KFDPYhUXyZ1b6uQfAFlSrWYHRjTfEzsyY2q1
pDZxveX6hUCYPgsdZea2oMW0Gz8G1I7PS5dbfPL0V7qJqanUsrN/cHGFyo7dPzte
ZKeihJFFnhRKfgIcsEVP7pCOGtYnCRld8WyKSy2FBQqDrxwaDA63M9K3xgrz
-----END CERTIFICATE-----

Certificate:
    Data:
        Version: 3 (0x2)
        Serial Number: 2 (0x2)
    Signature Algorithm: sha256WithRSAEncryption
        Issuer: CN=Root
        Validity
            Not Before: Jan  1 12:00:00 2015 GMT
            Not After : Jan  1 12:00:00 2016 GMT
        Subject: CN=Intermediate1
        Subject Public Key Info:
            Public Key Algorithm: rsaEncryption
                Public-Key: (2048 bit)
                Modulus:
                    00:db:38:a4:dd:a1:12:62:44:8f:17:f5:d0:26:2d:
                    52:d6:74:74:29:d1:7c:9d:97:a2:a2:18:10:ff:08:
                    38:d8:b1:9b:ff:ff:91:f1:e0:36:31:37:e1:e7:32:
                    ca:40:12:7a:6a:4f:fa:44:91:40:1f:51:14:85:32:
                    9f:16:e1:2d:35:65:5f:3b:a8:6d:a4:e9:eb:51:d0:
                    1f:f7:9c:1e:22:82:48:2d:72:82:a3:59:82:f1:02:
                    0f:73:ce:1e:92:0d:1c:23:31:a7:4a:80:f1:65:13:
                    a5:57:2b:ab:16:f4:87:ca:45:79:8e:46:68:4b:97:
                    00:b2:98:61:c7:0d:21:47:58:dc:ff:85:4e:46:9e:
                    7c:2a:90:a0:8c:22:a2:91:06:51:61:e1:75:7d:66:
                    a4:4f:7e:12:4b:8b:f1:aa:a5:aa:fb:73:d8:ca:a2:
                    2b:c3:ba:3c:b4:03:4c:c8:9a:b6:8e:6d:9d:3f:45:
                    2b:35:3c:f7:86:f6:83:1a:b8:0e:41:a8:7f:62:2d:
                    d7:95:f8:39:f8:7c:bf:e9:2d:3a:1d:7b:16:b4:55:
                    46:d4:5c:bb:d1:19:24:97:c3:14:97:94:d4:43:b4:
                    94:07:be:12:72:ba:de:60:7a:75:3b:da:df:81:cc:
                    55:18:07:85:44:9c:95:da:30:e7:a1:01:e9:2a:85:
                    64:07
                Exponent: 65537 (0x10001)
        X509v3 extensions:
            X509v3 Subject Key Identifier: 
                6A:CF:A7:31:B7:5A:1E:F0:D3:D0:55:74:2A:18:ED:26:B6:46:99:A2
            X509v3 Authority Key Identifier: 
                keyid:46:4A:98:70:E1:6E:F7:E1:51:0F:EE:4D:43:FA:ED:D8:F3:23:58:BF

            Authority Information Access: 
                CA Issuers - URI:http://url-for-aia/Root.cer

            X509v3 CRL Distribution Points: 

                Full Name:
                  URI:http://url-for-crl/Root.crl

            X509v3 Key Usage: critical
                Certificate Sign, CRL Sign
            X509v3 Basic Constraints: critical
                CA:TRUE
    Signature Algorithm: sha256WithRSAEncryption
         97:fe:af:92:37:5a:ea:1f:72:3a:0a:87:37:b2:e1:67:bf:37:
         66:1c:34:85:aa:86:38:36:c2:5e:cf:bb:de:4c:05:06:d8:61:
         96:4e:e7:3a:28:65:fb:1d:ee:c2:ff:e4:93:17:3d:6c:fa:1b:
         04:d0:06:6d:fb:41:3c:81:ff:e5:39:14:d1:37:b1:ad:fa:2f:
         c8:fa:ce:7f:7a:85:b1:11:22:7d:24:d4:b8:93:cb:41:75:b2:
         7c:09:cc:af:79:af:e5:a6:49:f6:42:d3:f0:38:47:b7:28:10:
         56:5e:ea:65:09:11:e7:4b:42:66:3f:e5:83:08:19:cf:da:69:
         6a:45:51:c9:d0:93:43:71:2d:94:d4:33:b3:77:2c:a9:9e:76:
         b8:49:70:17:ae:80:2e:3b:d0:91:63:28:9e:86:11:88:8e:0b:
         c3:10:04:13:87:b0:5e:29:67:e8:03:ba:3d:40:04:3d:df:a5:
         68:34:1d:3f:7e:c8:ff:38:00:4d:da:a1:2f:e6:76:54:26:d7:
         42:11:fa:b0:be:8d:a1:67:95:ec:04:ff:21:db:99:ad:90:50:
         cf:38:54:8a:4f:68:ca:e5:aa:00:9d:79:4a:57:ed:58:b0:b1:
         bc:0b:31:c2:c6:6b:c5:5b:e0:5f:3e:b3:8c:56:8a:04:9a:45:
         23:3a:e2:dd
-----BEGIN CERTIFICATE-----
MIIDbjCCAlagAwIBAgIBAjANBgkqhkiG9w0BAQsFADAPMQ0wCwYDVQQDDARSb290
MB4XDTE1MDEwMTEyMDAwMFoXDTE2MDEwMTEyMDAwMFowGDEWMBQGA1UEAwwNSW50
ZXJtZWRpYXRlMTCCASIwDQYJKoZIhvcNAQEBBQADggEPADCCAQoCggEBANs4pN2h
EmJEjxf10CYtUtZ0dCnRfJ2XoqIYEP8IONixm///kfHgNjE34ecyykASempP+kSR
QB9RFIUynxbhLTVlXzuobaTp61HQH/ecHiKCSC1ygqNZgvECD3POHpINHCMxp0qA
8WUTpVcrqxb0h8pFeY5GaEuXALKYYccNIUdY3P+FTkaefCqQoIwiopEGUWHhdX1m
pE9+EkuL8aqlqvtz2MqiK8O6PLQDTMiato5tnT9FKzU894b2gxq4DkGof2It15X4
Ofh8v+ktOh17FrRVRtRcu9EZJJfDFJeU1EO0lAe+EnK63mB6dTva34HMVRgHhUSc
ldow56EB6SqFZAcCAwEAAaOByzCByDAdBgNVHQ4EFgQUas+nMbdaHvDT0FV0Khjt
JrZGmaIwHwYDVR0jBBgwFoAURkqYcOFu9+FRD+5NQ/rt2PMjWL8wNwYIKwYBBQUH
AQEEKzApMCcGCCsGAQUFBzAChhtodHRwOi8vdXJsLWZvci1haWEvUm9vdC5jZXIw
LAYDVR0fBCUwIzAhoB+gHYYbaHR0cDovL3VybC1mb3ItY3JsL1Jvb3QuY3JsMA4G
A1UdDwEB/wQEAwIBBjAPBgNVHRMBAf8EBTADAQH/MA0GCSqGSIb3DQEBCwUAA4IB
AQCX/q+SN1rqH3I6Coc3suFnvzdmHDSFqoY4NsJez7veTAUG2GGWTuc6KGX7He7C
/+STFz1s+hsE0AZt+0E8gf/lORTRN7Gt+i/I+s5/eoWxESJ9JNS4k8tBdbJ8Ccyv
ea/lpkn2QtPwOEe3KBBWXuplCRHnS0JmP+WDCBnP2mlqRVHJ0JNDcS2U1DOzdyyp
nna4SXAXroAuO9CRYyiehhGIjgvDEAQTh7BeKWfoA7o9QAQ936VoNB0/fsj/OABN
2qEv5nZUJtdCEfqwvo2hZ5XsBP8h25mtkFDPOFSKT2jK5aoAnXlKV+1YsLG8CzHC
xmvFW+BfPrOMVooEmkUjOuLd
-----END CERTIFICATE-----

Certificate:
    Data:
        Version: 3 (0x2)
        Serial Number: 1 (0x1)
    Signature Algorithm: sha256WithRSAEncryption
        Issuer: CN=Root
        Validity
            Not Before: Jan  1 12:00:00 2015 GMT
            Not After : Jan  1 12:00:00 2016 GMT
        Subject: CN=Root
        Subject Public Key Info:
            Public Key Algorithm: rsaEncryption
                Public-Key: (2048 bit)
                Modulus:
                    00:ae:d8:f0:4c:e2:aa:62:09:4f:6c:9e:00:49:b4:
                    b3:65:74:d7:78:f8:8d:42:96:f8:95:0e:58:91:bc:
                    b5:0c:9e:0c:df:0d:ab:e4:0b:8c:4d:77:24:45:0f:
                    02:97:7c:d7:c4:10:41:7f:1f:10:80:46:85:6b:c1:
                    bb:88:81:fc:af:9e:35:f1:88:62:ff:58:e8:67:13:
                    a1:0d:10:9c:ea:0e:5d:fa:2c:b3:a2:e4:aa:53:55:
                    f4:01:1d:f9:bf:05:7e:36:f6:93:df:ce:44:e6:a9:
                    8e:2d:93:75:1c:a1:55:18:41:f3:7f:1e:62:76:18:
                    3f:0f:ca:5b:d5:0b:49:d1:ff:6a:1c:d5:2f:9d:c9:
                    63:b7:1c:b7:03:39:5a:41:c5:b2:19:86:dd:f8:a1:
                    df:e8:75:4b:91:69:0b:96:83:c7:df:c5:c8:f0:a9:
                    ea:7c:d3:fe:11:29:39:ca:ce:1e:5e:9a:00:0c:16:
                    1d:aa:c4:f0:4f:4f:d8:12:57:06:04:3c:04:e3:89:
                    d8:fb:71:9f:d5:14:c0:e9:ad:c9:c9:61:7f:00:6a:
                    e7:3f:c3:fc:99:b7:94:2a:dd:16:d7:f5:7d:77:1d:
                    de:87:e7:0b:18:fa:35:e6:23:7b:c9:d1:6a:88:20:
                    bf:ed:ec:2a:2a:e1:65:96:1e:68:15:bd:1b:ae:31:
                    cf:73
                Exponent: 65537 (0x10001)
        X509v3 extensions:
            X509v3 Subject Key Identifier: 
                46:4A:98:70:E1:6E:F7:E1:51:0F:EE:4D:43:FA:ED:D8:F3:23:58:BF
            X509v3 Authority Key Identifier: 
                keyid:46:4A:98:70:E1:6E:F7:E1:51:0F:EE:4D:43:FA:ED:D8:F3:23:58:BF

            Authority Information Access: 
                CA Issuers - URI:http://url-for-aia/Root.cer

            X509v3 CRL Distribution Points: 

                Full Name:
                  URI:http://url-for-crl/Root.crl

            X509v3 Key Usage: critical
                Certificate Sign, CRL Sign
            X509v3 Basic Constraints: critical
                CA:TRUE, pathlen:1
    Signature Algorithm: sha256WithRSAEncryption
         75:7f:28:f3:9e:92:a5:65:6a:9a:ed:7f:29:3e:17:88:10:6a:
         cc:a7:0d:b7:80:f0:d4:38:d0:f2:ed:a6:51:3e:7f:20:98:f3:
         bc:18:ad:c3:3d:83:bb:b4:37:f0:27:68:eb:71:e4:a0:33:f0:
         6b:57:be:f2:9d:f6:45:ac:7b:83:bd:f9:bc:90:6e:38:20:4a:
         69:00:f3:2c:b0:b2:68:a4:14:b8:2d:09:f5:87:63:57:97:0a:
         c5:64:41:c4:ab:b3:09:91:4e:ab:c6:b6:0f:1b:d4:86:16:12:
         02:86:3f:c7:4b:46:05:55:28:8b:f8:a5:f1:a3:1a:8c:d0:1c:
         b6:83:56:01:9f:fd:68:f6:e1:6d:ff:ce:3a:59:7d:0e:5e:be:
         72:e7:b3:7c:c3:b6:a4:a1:a9:bc:a4:af:60:55:5b:07:51:19:
         db:5b:1a:89:b9:ab:bb:cb:7a:ed:33:b1:c7:10:f6:6b:c7:a8:
         93:fb:fb:b7:f0:40:db:22:73:86:7d:da:db:33:a8:f4:e3:fc:
         45:6e:69:49:ba:18:7c:c0:59:75:b9:82:64:ae:8d:db:ae:27:
         03:14:2d:e2:e0:38:d3:af:0c:65:3b:4b:d7:c2:94:d4:9a:4d:
         e6:58:31:d8:b6:c0:b1:c7:71:21:3f:a1:bf:84:d1:a1:c0:d9:
         06:47:08:0b
-----BEGIN TRUSTED_CERTIFICATE-----
MIIDaDCCAlCgAwIBAgIBATANBgkqhkiG9w0BAQsFADAPMQ0wCwYDVQQDDARSb290
MB4XDTE1MDEwMTEyMDAwMFoXDTE2MDEwMTEyMDAwMFowDzENMAsGA1UEAwwEUm9v
dDCCASIwDQYJKoZIhvcNAQEBBQADggEPADCCAQoCggEBAK7Y8EziqmIJT2yeAEm0
s2V013j4jUKW+JUOWJG8tQyeDN8Nq+QLjE13JEUPApd818QQQX8fEIBGhWvBu4iB
/K+eNfGIYv9Y6GcToQ0QnOoOXfoss6LkqlNV9AEd+b8Ffjb2k9/OROapji2TdRyh
VRhB838eYnYYPw/KW9ULSdH/ahzVL53JY7cctwM5WkHFshmG3fih3+h1S5FpC5aD
x9/FyPCp6nzT/hEpOcrOHl6aAAwWHarE8E9P2BJXBgQ8BOOJ2Ptxn9UUwOmtyclh
fwBq5z/D/Jm3lCrdFtf1fXcd3ofnCxj6NeYje8nRaoggv+3sKirhZZYeaBW9G64x
z3MCAwEAAaOBzjCByzAdBgNVHQ4EFgQURkqYcOFu9+FRD+5NQ/rt2PMjWL8wHwYD
VR0jBBgwFoAURkqYcOFu9+FRD+5NQ/rt2PMjWL8wNwYIKwYBBQUHAQEEKzApMCcG
CCsGAQUFBzAChhtodHRwOi8vdXJsLWZvci1haWEvUm9vdC5jZXIwLAYDVR0fBCUw
IzAhoB+gHYYbaHR0cDovL3VybC1mb3ItY3JsL1Jvb3QuY3JsMA4GA1UdDwEB/wQE
AwIBBjASBgNVHRMBAf8ECDAGAQH/AgEBMA0GCSqGSIb3DQEBCwUAA4IBAQB1fyjz
npKlZWqa7X8pPheIEGrMpw23gPDUONDy7aZRPn8gmPO8GK3DPYO7tDfwJ2jrceSg
M/BrV77ynfZFrHuDvfm8kG44IEppAPMssLJopBS4LQn1h2NXlwrFZEHEq7MJkU6r
xrYPG9SGFhIChj/HS0YFVSiL+KXxoxqM0By2g1YBn/1o9uFt/846WX0OXr5y57N8
w7akoam8pK9gVVsHURnbWxqJuau7y3rtM7HHEPZrx6iT+/u38EDbInOGfdrbM6j0
4/xFbmlJuhh8wFl1uYJkro3bricDFC3i4DjTrwxlO0vXwpTUmk3mWDHYtsCxx3Eh
P6G/hNGhwNkGRwgL
-----END TRUSTED_CERTIFICATE-----

-----BEGIN TIME-----
MTUwMzAyMTIwMDAwWg==
-----END TIME-----

-----BEGIN VERIFY_RESULT-----
RkFJTA==
-----END VERIFY_RESULT-----
